; Function Attrs: mustprogress nofree norecurse nosync nounwind willreturn memory(read, inaccessiblemem: none) uwtable
define dso_local i32 @typeTypeRelid(ptr noundef readonly captures(none) %0) local_unnamed_addr #4 {
  %2 = getelementptr i8, ptr %0, i64 16
  %.val = load ptr, ptr %2, align 8
  %3 = getelementptr inbounds nuw i8, ptr %.val, i64 22
  %4 = load i8, ptr %3, align 2
  %5 = zext i8 %4 to i64
  %6 = getelementptr inbounds nuw i8, ptr %.val, i64 %5
  %7 = getelementptr inbounds nuw i8, ptr %6, i64 84
  %8 = load i32, ptr %7, align 4
  ret i32 %8
}